target datalayout = "e-m:e-p270:32:32-p271:32:32-p272:64:64-i64:64-i128:128-f80:128-n8:16:32:64-S128"
target triple = "x86_64-pc-linux-gnu"

%struct.timespec = type { i64, i64 }

@.str.2 = private unnamed_addr constant [40 x i8] c"REO: Internal verification has failed!\0A\00", align 1
@stdout = external global ptr, align 8

; Function Attrs: nounwind uwtable
define internal i64 @Abc_Clock() #0 {
  %1 = alloca i64, align 8
  %2 = alloca %struct.timespec, align 8
  %3 = alloca i64, align 8
  %4 = call i32 @clock_gettime(i32 noundef 1, ptr noundef %2) #3
  %5 = icmp slt i32 %4, 0
  br i1 %5, label %6, label %7

6:                                                ; preds = %0
  store i64 -1, ptr %1, align 8
  br label %18

7:                                                ; preds = %0
  %8 = getelementptr inbounds %struct.timespec, ptr %2, i32 0, i32 0
  %9 = load i64, ptr %8, align 8
  %10 = mul nsw i64 %9, 1000000
  store i64 %10, ptr %3, align 8
  %11 = getelementptr inbounds %struct.timespec, ptr %2, i32 0, i32 1
  %12 = load i64, ptr %11, align 8
  %13 = mul nsw i64 %12, 1000000
  %14 = sdiv i64 %13, 1000000000
  %15 = load i64, ptr %3, align 8
  %16 = add nsw i64 %15, %14
  store i64 %16, ptr %3, align 8
  %17 = load i64, ptr %3, align 8
  store i64 %17, ptr %1, align 8
  br label %18

18:                                               ; preds = %7, %6
  %19 = load i64, ptr %1, align 8
  ret i64 %19
}

; Function Attrs: nounwind uwtable
define void @Extra_ShuffleTest(ptr noundef %0, ptr noundef %1, ptr noundef %2) #0 {
  %4 = alloca ptr, align 8
  %5 = alloca ptr, align 8
  %6 = alloca ptr, align 8
  %7 = alloca ptr, align 8
  %8 = alloca ptr, align 8
  %9 = alloca i32, align 4
  %10 = alloca i32, align 4
  %11 = alloca i32, align 4
  %12 = alloca i32, align 4
  %13 = alloca i64, align 8
  %14 = alloca [1000 x i32], align 16
  %15 = alloca [1000 x i32], align 16
  %16 = alloca ptr, align 8
  store ptr %0, ptr %4, align 8
  store ptr %1, ptr %5, align 8
  store ptr %2, ptr %6, align 8
  call void @srand(i32 noundef 305402420) #3
  %17 = load ptr, ptr %5, align 8
  %18 = load ptr, ptr %6, align 8
  %19 = call i32 @Cudd_SupportSize(ptr noundef %17, ptr noundef %18)
  store i32 %19, ptr %9, align 4
  %20 = load i32, ptr %9, align 4
  %21 = icmp slt i32 %20, 2
  br i1 %21, label %22, label %23

22:                                               ; preds = %3
  br label %114

23:                                               ; preds = %3
  store i32 0, ptr %12, align 4
  br label %24

24:                                               ; preds = %33, %23
  %25 = load i32, ptr %12, align 4
  %26 = load i32, ptr %9, align 4
  %27 = icmp slt i32 %25, %26
  br i1 %27, label %28, label %36

28:                                               ; preds = %24
  %29 = load i32, ptr %12, align 4
  %30 = load i32, ptr %12, align 4
  %31 = sext i32 %30 to i64
  %32 = getelementptr inbounds [1000 x i32], ptr %14, i64 0, i64 %31
  store i32 %29, ptr %32, align 4
  br label %33

33:                                               ; preds = %28
  %34 = load i32, ptr %12, align 4
  %35 = add nsw i32 %34, 1
  store i32 %35, ptr %12, align 4
  br label %24, !llvm.loop !11

36:                                               ; preds = %24
  store i32 0, ptr %12, align 4
  br label %37

37:                                               ; preds = %62, %36
  %38 = load i32, ptr %12, align 4
  %39 = icmp slt i32 %38, 120
  br i1 %39, label %40, label %65

40:                                               ; preds = %37
  %41 = call i32 @rand() #3
  %42 = load i32, ptr %9, align 4
  %43 = sub nsw i32 %42, 1
  %44 = srem i32 %41, %43
  store i32 %44, ptr %10, align 4
  %45 = load i32, ptr %10, align 4
  %46 = sext i32 %45 to i64
  %47 = getelementptr inbounds [1000 x i32], ptr %14, i64 0, i64 %46
  %48 = load i32, ptr %47, align 4
  store i32 %48, ptr %11, align 4
  %49 = load i32, ptr %10, align 4
  %50 = add nsw i32 %49, 1
  %51 = sext i32 %50 to i64
  %52 = getelementptr inbounds [1000 x i32], ptr %14, i64 0, i64 %51
  %53 = load i32, ptr %52, align 4
  %54 = load i32, ptr %10, align 4
  %55 = sext i32 %54 to i64
  %56 = getelementptr inbounds [1000 x i32], ptr %14, i64 0, i64 %55
  store i32 %53, ptr %56, align 4
  %57 = load i32, ptr %11, align 4
  %58 = load i32, ptr %10, align 4
  %59 = add nsw i32 %58, 1
  %60 = sext i32 %59 to i64
  %61 = getelementptr inbounds [1000 x i32], ptr %14, i64 0, i64 %60
  store i32 %57, ptr %61, align 4
  br label %62

62:                                               ; preds = %40
  %63 = load i32, ptr %12, align 4
  %64 = add nsw i32 %63, 1
  store i32 %64, ptr %12, align 4
  br label %37, !llvm.loop !12

65:                                               ; preds = %37
  store i32 0, ptr %12, align 4
  br label %66

66:                                               ; preds = %78, %65
  %67 = load i32, ptr %12, align 4
  %68 = load i32, ptr %9, align 4
  %69 = icmp slt i32 %67, %68
  br i1 %69, label %70, label %81

70:                                               ; preds = %66
  %71 = load i32, ptr %12, align 4
  %72 = load i32, ptr %12, align 4
  %73 = sext i32 %72 to i64
  %74 = getelementptr inbounds [1000 x i32], ptr %14, i64 0, i64 %73
  %75 = load i32, ptr %74, align 4
  %76 = sext i32 %75 to i64
  %77 = getelementptr inbounds [1000 x i32], ptr %15, i64 0, i64 %76
  store i32 %71, ptr %77, align 4
  br label %78

78:                                               ; preds = %70
  %79 = load i32, ptr %12, align 4
  %80 = add nsw i32 %79, 1
  store i32 %80, ptr %12, align 4
  br label %66, !llvm.loop !13

81:                                               ; preds = %66
  %82 = load ptr, ptr %5, align 8
  %83 = load ptr, ptr %6, align 8
  %84 = call ptr @Extra_bddRemapUp(ptr noundef %82, ptr noundef %83)
  store ptr %84, ptr %8, align 8
  %85 = load ptr, ptr %8, align 8
  call void @Cudd_Ref(ptr noundef %85)
  %86 = call i64 @Abc_Clock()
  store i64 %86, ptr %13, align 8
  %87 = load ptr, ptr %4, align 8
  %88 = load ptr, ptr %5, align 8
  %89 = load ptr, ptr %8, align 8
  %90 = getelementptr inbounds [1000 x i32], ptr %14, i64 0, i64 0
  %91 = getelementptr inbounds [1000 x i32], ptr %15, i64 0, i64 0
  %92 = call ptr @reoShuffle(ptr noundef %87, ptr noundef %88, ptr noundef %89, ptr noundef %90, ptr noundef %91)
  store ptr %92, ptr %7, align 8
  %93 = load ptr, ptr %7, align 8
  call void @Cudd_Ref(ptr noundef %93)
  %94 = call i64 @Abc_Clock()
  store i64 %94, ptr %13, align 8
  %95 = load ptr, ptr %5, align 8
  %96 = load ptr, ptr %8, align 8
  %97 = getelementptr inbounds [1000 x i32], ptr %15, i64 0, i64 0
  %98 = call ptr @Cudd_bddPermute(ptr noundef %95, ptr noundef %96, ptr noundef %97)
  store ptr %98, ptr %16, align 8
  %99 = load ptr, ptr %16, align 8
  call void @Cudd_Ref(ptr noundef %99)
  %100 = load ptr, ptr %16, align 8
  %101 = load ptr, ptr %7, align 8
  %102 = icmp ne ptr %100, %101
  br i1 %102, label %103, label %107

103:                                              ; preds = %81
  %104 = call i32 (ptr, ...) @printf(ptr noundef @.str.2)
  %105 = load ptr, ptr @stdout, align 8
  %106 = call i32 @fflush(ptr noundef %105)
  br label %107

107:                                              ; preds = %103, %81
  %108 = load ptr, ptr %5, align 8
  %109 = load ptr, ptr %16, align 8
  call void @Cudd_RecursiveDeref(ptr noundef %108, ptr noundef %109)
  %110 = load ptr, ptr %5, align 8
  %111 = load ptr, ptr %7, align 8
  call void @Cudd_RecursiveDeref(ptr noundef %110, ptr noundef %111)
  %112 = load ptr, ptr %5, align 8
  %113 = load ptr, ptr %8, align 8
  call void @Cudd_RecursiveDeref(ptr noundef %112, ptr noundef %113)
  br label %114

114:                                              ; preds = %107, %22
  ret void
}